target datalayout = "e-m:e-p270:32:32-p271:32:32-p272:64:64-i64:64-i128:128-f80:128-n8:16:32:64-S128"
target triple = "x86_64-pc-linux-gnu"

%struct.__va_list_tag = type { i32, i32, ptr, ptr }

; Function Attrs: inlinehint nounwind uwtable
define internal ptr @ossl_check_GENERAL_NAME_type(ptr noundef %0) #5 {
  %2 = alloca ptr, align 8
  store ptr %0, ptr %2, align 8, !tbaa !28
  %3 = load ptr, ptr %2, align 8, !tbaa !28
  ret ptr %3
}

; Function Attrs: inlinehint nounwind uwtable
define internal ptr @ossl_check_GENERAL_NAME_sk_type(ptr noundef %0) #5 {
  %2 = alloca ptr, align 8
  store ptr %0, ptr %2, align 8, !tbaa !39
  %3 = load ptr, ptr %2, align 8, !tbaa !39
  ret ptr %3
}

; Function Attrs: nounwind uwtable
define internal i32 @set_altname(ptr noundef %0, ...) #0 {
  %2 = alloca i32, align 4
  %3 = alloca ptr, align 8
  %4 = alloca i32, align 4
  %5 = alloca ptr, align 8
  %6 = alloca ptr, align 8
  %7 = alloca ptr, align 8
  %8 = alloca [1 x %struct.__va_list_tag], align 16
  %9 = alloca i32, align 4
  %10 = alloca ptr, align 8
  %11 = alloca i32, align 4
  store ptr %0, ptr %3, align 8, !tbaa !17
  call void @llvm.lifetime.start.p0(i64 4, ptr %4) #8
  store i32 0, ptr %4, align 4, !tbaa !4
  call void @llvm.lifetime.start.p0(i64 8, ptr %5) #8
  store ptr null, ptr %5, align 8, !tbaa !39
  call void @llvm.lifetime.start.p0(i64 8, ptr %6) #8
  store ptr null, ptr %6, align 8, !tbaa !28
  call void @llvm.lifetime.start.p0(i64 8, ptr %7) #8
  store ptr null, ptr %7, align 8, !tbaa !41
  call void @llvm.lifetime.start.p0(i64 24, ptr %8) #8
  %12 = getelementptr inbounds [1 x %struct.__va_list_tag], ptr %8, i64 0, i64 0
  call void @llvm.va_start.p0(ptr %12)
  %13 = call ptr @OPENSSL_sk_new_null()
  store ptr %13, ptr %5, align 8, !tbaa !39
  %14 = load ptr, ptr %5, align 8, !tbaa !39
  %15 = icmp eq ptr %14, null
  br i1 %15, label %16, label %17

16:                                               ; preds = %1
  br label %97

17:                                               ; preds = %1
  br label %18

18:                                               ; preds = %89, %17
  br label %19

19:                                               ; preds = %18
  call void @llvm.lifetime.start.p0(i64 4, ptr %9) #8
  call void @llvm.lifetime.start.p0(i64 8, ptr %10) #8
  %20 = getelementptr inbounds [1 x %struct.__va_list_tag], ptr %8, i64 0, i64 0
  %21 = getelementptr inbounds nuw %struct.__va_list_tag, ptr %20, i32 0, i32 0
  %22 = load i32, ptr %21, align 16
  %23 = icmp ule i32 %22, 40
  br i1 %23, label %24, label %29

24:                                               ; preds = %19
  %25 = getelementptr inbounds nuw %struct.__va_list_tag, ptr %20, i32 0, i32 3
  %26 = load ptr, ptr %25, align 16
  %27 = getelementptr i8, ptr %26, i32 %22
  %28 = add i32 %22, 8
  store i32 %28, ptr %21, align 16
  br label %33

29:                                               ; preds = %19
  %30 = getelementptr inbounds nuw %struct.__va_list_tag, ptr %20, i32 0, i32 2
  %31 = load ptr, ptr %30, align 8
  %32 = getelementptr i8, ptr %31, i32 8
  store ptr %32, ptr %30, align 8
  br label %33

33:                                               ; preds = %29, %24
  %34 = phi ptr [ %27, %24 ], [ %31, %29 ]
  %35 = load i32, ptr %34, align 4, !tbaa !4
  store i32 %35, ptr %9, align 4, !tbaa !4
  %36 = load i32, ptr %9, align 4, !tbaa !4
  %37 = icmp eq i32 %36, 0
  br i1 %37, label %38, label %39

38:                                               ; preds = %33
  store i32 4, ptr %11, align 4
  br label %87

39:                                               ; preds = %33
  %40 = getelementptr inbounds [1 x %struct.__va_list_tag], ptr %8, i64 0, i64 0
  %41 = getelementptr inbounds nuw %struct.__va_list_tag, ptr %40, i32 0, i32 0
  %42 = load i32, ptr %41, align 16
  %43 = icmp ule i32 %42, 40
  br i1 %43, label %44, label %49

44:                                               ; preds = %39
  %45 = getelementptr inbounds nuw %struct.__va_list_tag, ptr %40, i32 0, i32 3
  %46 = load ptr, ptr %45, align 16
  %47 = getelementptr i8, ptr %46, i32 %42
  %48 = add i32 %42, 8
  store i32 %48, ptr %41, align 16
  br label %53

49:                                               ; preds = %39
  %50 = getelementptr inbounds nuw %struct.__va_list_tag, ptr %40, i32 0, i32 2
  %51 = load ptr, ptr %50, align 8
  %52 = getelementptr i8, ptr %51, i32 8
  store ptr %52, ptr %50, align 8
  br label %53

53:                                               ; preds = %49, %44
  %54 = phi ptr [ %47, %44 ], [ %51, %49 ]
  %55 = load ptr, ptr %54, align 8, !tbaa !16
  store ptr %55, ptr %10, align 8, !tbaa !16
  %56 = call ptr @GENERAL_NAME_new()
  store ptr %56, ptr %6, align 8, !tbaa !28
  %57 = load ptr, ptr %6, align 8, !tbaa !28
  %58 = icmp eq ptr %57, null
  br i1 %58, label %59, label %60

59:                                               ; preds = %53
  store i32 2, ptr %11, align 4
  br label %87

60:                                               ; preds = %53
  %61 = call ptr @ASN1_IA5STRING_new()
  store ptr %61, ptr %7, align 8, !tbaa !41
  %62 = load ptr, ptr %7, align 8, !tbaa !41
  %63 = icmp eq ptr %62, null
  br i1 %63, label %64, label %65

64:                                               ; preds = %60
  store i32 2, ptr %11, align 4
  br label %87

65:                                               ; preds = %60
  %66 = load ptr, ptr %7, align 8, !tbaa !41
  %67 = load ptr, ptr %10, align 8, !tbaa !16
  %68 = call i32 @ASN1_STRING_set(ptr noundef %66, ptr noundef %67, i32 noundef -1)
  %69 = icmp ne i32 %68, 0
  br i1 %69, label %71, label %70

70:                                               ; preds = %65
  store i32 2, ptr %11, align 4
  br label %87

71:                                               ; preds = %65
  %72 = load i32, ptr %9, align 4, !tbaa !4
  switch i32 %72, label %77 [
    i32 1, label %73
    i32 2, label %73
  ]

73:                                               ; preds = %71, %71
  %74 = load ptr, ptr %6, align 8, !tbaa !28
  %75 = load i32, ptr %9, align 4, !tbaa !4
  %76 = load ptr, ptr %7, align 8, !tbaa !41
  call void @GENERAL_NAME_set0_value(ptr noundef %74, i32 noundef %75, ptr noundef %76)
  store ptr null, ptr %7, align 8, !tbaa !41
  br label %78

77:                                               ; preds = %71
  call void @abort() #10
  unreachable

78:                                               ; preds = %73
  %79 = load ptr, ptr %5, align 8, !tbaa !39
  %80 = call ptr @ossl_check_GENERAL_NAME_sk_type(ptr noundef %79)
  %81 = load ptr, ptr %6, align 8, !tbaa !28
  %82 = call ptr @ossl_check_GENERAL_NAME_type(ptr noundef %81)
  %83 = call i32 @OPENSSL_sk_push(ptr noundef %80, ptr noundef %82)
  %84 = icmp ne i32 %83, 0
  br i1 %84, label %86, label %85

85:                                               ; preds = %78
  store i32 2, ptr %11, align 4
  br label %87

86:                                               ; preds = %78
  store ptr null, ptr %6, align 8, !tbaa !28
  store i32 0, ptr %11, align 4
  br label %87

87:                                               ; preds = %85, %70, %64, %59, %86, %38
  call void @llvm.lifetime.end.p0(i64 8, ptr %10) #8
  call void @llvm.lifetime.end.p0(i64 4, ptr %9) #8
  %88 = load i32, ptr %11, align 4
  switch i32 %88, label %103 [
    i32 0, label %89
    i32 4, label %90
    i32 2, label %97
  ]

89:                                               ; preds = %87
  br label %18

90:                                               ; preds = %87
  %91 = load ptr, ptr %3, align 8, !tbaa !17
  %92 = load ptr, ptr %5, align 8, !tbaa !39
  %93 = call i32 @X509_add1_ext_i2d(ptr noundef %91, i32 noundef 85, ptr noundef %92, i32 noundef 0, i64 noundef 0)
  %94 = icmp ne i32 %93, 0
  br i1 %94, label %96, label %95

95:                                               ; preds = %90
  br label %97

96:                                               ; preds = %90
  store i32 1, ptr %4, align 4, !tbaa !4
  br label %97

97:                                               ; preds = %96, %87, %95, %16
  %98 = load ptr, ptr %7, align 8, !tbaa !41
  call void @ASN1_IA5STRING_free(ptr noundef %98)
  %99 = load ptr, ptr %6, align 8, !tbaa !28
  call void @GENERAL_NAME_free(ptr noundef %99)
  %100 = load ptr, ptr %5, align 8, !tbaa !39
  call void @GENERAL_NAMES_free(ptr noundef %100)
  %101 = getelementptr inbounds [1 x %struct.__va_list_tag], ptr %8, i64 0, i64 0
  call void @llvm.va_end.p0(ptr %101)
  %102 = load i32, ptr %4, align 4, !tbaa !4
  store i32 %102, ptr %2, align 4
  store i32 1, ptr %11, align 4
  br label %103

103:                                              ; preds = %97, %87
  call void @llvm.lifetime.end.p0(i64 24, ptr %8) #8
  call void @llvm.lifetime.end.p0(i64 8, ptr %7) #8
  call void @llvm.lifetime.end.p0(i64 8, ptr %6) #8
  call void @llvm.lifetime.end.p0(i64 8, ptr %5) #8
  call void @llvm.lifetime.end.p0(i64 4, ptr %4) #8
  %104 = load i32, ptr %2, align 4
  ret i32 %104
}