; Function Attrs: nounwind uwtable
define internal range(i32 0, 2) i32 @set_altname(ptr noundef %0, ...) unnamed_addr #0 {
  %2 = alloca [1 x %struct.__va_list_tag], align 16
  call void @llvm.lifetime.start.p0(i64 24, ptr nonnull %2) #7
  call void @llvm.va_start.p0(ptr nonnull %2)
  %3 = call ptr @OPENSSL_sk_new_null() #7
  %4 = icmp eq ptr %3, null
  br i1 %4, label %.thread, label %.preheader

.preheader:                                       ; preds = %1
  %5 = getelementptr inbounds nuw i8, ptr %2, i64 8
  %6 = getelementptr inbounds nuw i8, ptr %2, i64 16
  br label %7

7:                                                ; preds = %.preheader, %44
  %8 = load i32, ptr %2, align 16
  %9 = icmp ult i32 %8, 41
  br i1 %9, label %10, label %15

10:                                               ; preds = %7
  %11 = load ptr, ptr %6, align 16
  %12 = zext nneg i32 %8 to i64
  %13 = getelementptr i8, ptr %11, i64 %12
  %14 = add nuw nsw i32 %8, 8
  store i32 %14, ptr %2, align 16
  br label %18

15:                                               ; preds = %7
  %16 = load ptr, ptr %5, align 8
  %17 = getelementptr i8, ptr %16, i64 8
  store ptr %17, ptr %5, align 8
  br label %18

18:                                               ; preds = %15, %10
  %19 = phi i32 [ %14, %10 ], [ %8, %15 ]
  %20 = phi ptr [ %13, %10 ], [ %16, %15 ]
  %21 = load i32, ptr %20, align 4, !tbaa !28
  %22 = icmp eq i32 %21, 0
  br i1 %22, label %47, label %23

23:                                               ; preds = %18
  %24 = icmp ult i32 %19, 41
  br i1 %24, label %25, label %30

25:                                               ; preds = %23
  %26 = load ptr, ptr %6, align 16
  %27 = zext nneg i32 %19 to i64
  %28 = getelementptr i8, ptr %26, i64 %27
  %29 = add nuw nsw i32 %19, 8
  store i32 %29, ptr %2, align 16
  br label %33

30:                                               ; preds = %23
  %31 = load ptr, ptr %5, align 8
  %32 = getelementptr i8, ptr %31, i64 8
  store ptr %32, ptr %5, align 8
  br label %33

33:                                               ; preds = %30, %25
  %34 = phi ptr [ %28, %25 ], [ %31, %30 ]
  %35 = load ptr, ptr %34, align 8, !tbaa !13
  %36 = call ptr @GENERAL_NAME_new() #7
  %37 = icmp eq ptr %36, null
  br i1 %37, label %.thread, label %38

38:                                               ; preds = %33
  %39 = call ptr @ASN1_IA5STRING_new() #7
  %40 = icmp eq ptr %39, null
  br i1 %40, label %.thread, label %41

41:                                               ; preds = %38
  %42 = call i32 @ASN1_STRING_set(ptr noundef nonnull %39, ptr noundef %35, i32 noundef -1) #7
  %.not = icmp eq i32 %42, 0
  br i1 %.not, label %.thread, label %43

43:                                               ; preds = %41
  %switch = icmp ult i32 %21, 3
  br i1 %switch, label %44, label %46

44:                                               ; preds = %43
  call void @GENERAL_NAME_set0_value(ptr noundef nonnull %36, i32 noundef %21, ptr noundef nonnull %39) #7
  %45 = call i32 @OPENSSL_sk_push(ptr noundef nonnull %3, ptr noundef nonnull %36) #7
  %.not32 = icmp eq i32 %45, 0
  br i1 %.not32, label %.thread, label %7

46:                                               ; preds = %43
  call void @abort() #9
  unreachable

47:                                               ; preds = %18
  %48 = call i32 @X509_add1_ext_i2d(ptr noundef %0, i32 noundef 85, ptr noundef nonnull %3, i32 noundef 0, i64 noundef 0) #7
  %.not33 = icmp ne i32 %48, 0
  %spec.select = zext i1 %.not33 to i32
  br label %.thread

.thread:                                          ; preds = %44, %41, %38, %33, %1, %47
  %.022 = phi ptr [ null, %1 ], [ null, %47 ], [ %36, %44 ], [ null, %33 ], [ %36, %38 ], [ %36, %41 ]
  %.021 = phi ptr [ null, %1 ], [ null, %47 ], [ null, %44 ], [ null, %33 ], [ null, %38 ], [ %39, %41 ]
  %.020 = phi i32 [ 0, %1 ], [ %spec.select, %47 ], [ 0, %33 ], [ 0, %38 ], [ 0, %41 ], [ 0, %44 ]
  call void @ASN1_IA5STRING_free(ptr noundef %.021) #7
  call void @GENERAL_NAME_free(ptr noundef %.022) #7
  call void @GENERAL_NAMES_free(ptr noundef %3) #7
  call void @llvm.va_end.p0(ptr nonnull %2)
  call void @llvm.lifetime.end.p0(i64 24, ptr nonnull %2) #7
  ret i32 %.020
}